; ModuleID = 'source-C-CXX/30/270.c'
source_filename = "source-C-CXX/30/270.c"
target datalayout = "e-m:e-p270:32:32-p271:32:32-p272:64:64-i64:64-f80:128-n8:16:32:64-S128"
target triple = "x86_64-pc-linux-gnu"

%struct.student = type { [100 x i8], [100 x i8], i8, i32, float, [100 x i8], %struct.student* }

@n = dso_local local_unnamed_addr global i32 0, align 4
@.str = private unnamed_addr constant [18 x i8] c"%s %s %c %d %f %s\00", align 1
@.str.1 = private unnamed_addr constant [4 x i8] c"end\00", align 1
@.str.2 = private unnamed_addr constant [3 x i8] c"%s\00", align 1
@.str.3 = private unnamed_addr constant [15 x i8] c"%s %c %d %f %s\00", align 1
@.str.4 = private unnamed_addr constant [19 x i8] c"%s %s %c %d %g %s\0A\00", align 1

; Function Attrs: nofree nounwind sspstrong uwtable
define dso_local %struct.student* @input() local_unnamed_addr #0 {
  store i32 0, i32* @n, align 4, !tbaa !5
  %1 = tail call noalias align 16 dereferenceable_or_null(100) i8* @malloc(i64 100) #4
  %2 = bitcast i8* %1 to %struct.student*
  %3 = getelementptr inbounds %struct.student, %struct.student* %2, i64 0, i32 0
  %4 = getelementptr inbounds %struct.student, %struct.student* %2, i64 0, i32 1
  %5 = getelementptr inbounds %struct.student, %struct.student* %2, i64 0, i32 2
  %6 = getelementptr inbounds %struct.student, %struct.student* %2, i64 0, i32 3
  %7 = getelementptr inbounds %struct.student, %struct.student* %2, i64 0, i32 4
  %8 = getelementptr inbounds %struct.student, %struct.student* %2, i64 0, i32 5
  %9 = tail call i32 (i8*, ...) @__isoc99_scanf(i8* getelementptr inbounds ([18 x i8], [18 x i8]* @.str, i64 0, i64 0), [100 x i8]* %3, [100 x i8]* nonnull %4, i8* nonnull %5, i32* nonnull %6, float* nonnull %7, [100 x i8]* nonnull %8)
  %10 = getelementptr inbounds %struct.student, %struct.student* %2, i64 0, i32 6
  store %struct.student* null, %struct.student** %10, align 8, !tbaa !9
  %11 = getelementptr inbounds %struct.student, %struct.student* %2, i64 0, i32 0, i64 0
  %12 = tail call i32 @strcmp(i8* noundef nonnull dereferenceable(4) getelementptr inbounds ([4 x i8], [4 x i8]* @.str.1, i64 0, i64 0), i8* noundef nonnull dereferenceable(1) %11) #5
  %13 = icmp eq i32 %12, 0
  br i1 %13, label %37, label %14

14:                                               ; preds = %0, %26
  %15 = phi %struct.student* [ %19, %26 ], [ %2, %0 ]
  %16 = load i32, i32* @n, align 4, !tbaa !5
  %17 = add nsw i32 %16, 1
  store i32 %17, i32* @n, align 4, !tbaa !5
  %18 = tail call noalias align 16 dereferenceable_or_null(100) i8* @malloc(i64 100) #4
  %19 = bitcast i8* %18 to %struct.student*
  %20 = getelementptr inbounds %struct.student, %struct.student* %19, i64 0, i32 6
  store %struct.student* %15, %struct.student** %20, align 8, !tbaa !9
  %21 = getelementptr inbounds %struct.student, %struct.student* %19, i64 0, i32 0
  %22 = tail call i32 (i8*, ...) @__isoc99_scanf(i8* getelementptr inbounds ([3 x i8], [3 x i8]* @.str.2, i64 0, i64 0), [100 x i8]* %21)
  %23 = getelementptr inbounds %struct.student, %struct.student* %19, i64 0, i32 0, i64 0
  %24 = tail call i32 @strcmp(i8* noundef nonnull dereferenceable(4) getelementptr inbounds ([4 x i8], [4 x i8]* @.str.1, i64 0, i64 0), i8* noundef nonnull dereferenceable(1) %23) #5
  %25 = icmp eq i32 %24, 0
  br i1 %25, label %35, label %26

26:                                               ; preds = %14
  %27 = getelementptr inbounds %struct.student, %struct.student* %19, i64 0, i32 1
  %28 = getelementptr inbounds %struct.student, %struct.student* %19, i64 0, i32 2
  %29 = getelementptr inbounds %struct.student, %struct.student* %19, i64 0, i32 3
  %30 = getelementptr inbounds %struct.student, %struct.student* %19, i64 0, i32 4
  %31 = getelementptr inbounds %struct.student, %struct.student* %19, i64 0, i32 5
  %32 = tail call i32 (i8*, ...) @__isoc99_scanf(i8* getelementptr inbounds ([15 x i8], [15 x i8]* @.str.3, i64 0, i64 0), [100 x i8]* nonnull %27, i8* nonnull %28, i32* nonnull %29, float* nonnull %30, [100 x i8]* nonnull %31)
  %33 = tail call i32 @strcmp(i8* noundef nonnull dereferenceable(4) getelementptr inbounds ([4 x i8], [4 x i8]* @.str.1, i64 0, i64 0), i8* noundef nonnull dereferenceable(1) %23) #5
  %34 = icmp eq i32 %33, 0
  br i1 %34, label %35, label %14, !llvm.loop !13

35:                                               ; preds = %14, %26
  %36 = bitcast i8* %18 to %struct.student*
  br label %37

37:                                               ; preds = %35, %0
  %38 = phi %struct.student* [ %2, %0 ], [ %36, %35 ]
  %39 = getelementptr inbounds %struct.student, %struct.student* %38, i64 0, i32 6
  %40 = load %struct.student*, %struct.student** %39, align 8, !tbaa !9
  ret %struct.student* %40
}

; Function Attrs: inaccessiblememonly mustprogress nofree nounwind willreturn
declare noalias noundef align 16 i8* @malloc(i64 noundef) local_unnamed_addr #1

; Function Attrs: nofree nounwind
declare noundef i32 @__isoc99_scanf(i8* nocapture noundef readonly, ...) local_unnamed_addr #2

; Function Attrs: argmemonly mustprogress nofree nounwind readonly willreturn
declare i32 @strcmp(i8* nocapture, i8* nocapture) local_unnamed_addr #3

; Function Attrs: nofree nounwind sspstrong uwtable
define dso_local void @main() local_unnamed_addr #0 {
  %1 = tail call %struct.student* @input()
  %2 = icmp eq %struct.student* %1, null
  br i1 %2, label %20, label %3

3:                                                ; preds = %0, %3
  %4 = phi %struct.student* [ %18, %3 ], [ %1, %0 ]
  %5 = getelementptr inbounds %struct.student, %struct.student* %4, i64 0, i32 0, i64 0
  %6 = getelementptr inbounds %struct.student, %struct.student* %4, i64 0, i32 1, i64 0
  %7 = getelementptr inbounds %struct.student, %struct.student* %4, i64 0, i32 2
  %8 = load i8, i8* %7, align 8, !tbaa !15
  %9 = sext i8 %8 to i32
  %10 = getelementptr inbounds %struct.student, %struct.student* %4, i64 0, i32 3
  %11 = load i32, i32* %10, align 4, !tbaa !16
  %12 = getelementptr inbounds %struct.student, %struct.student* %4, i64 0, i32 4
  %13 = load float, float* %12, align 8, !tbaa !17
  %14 = fpext float %13 to double
  %15 = getelementptr inbounds %struct.student, %struct.student* %4, i64 0, i32 5, i64 0
  %16 = tail call i32 (i8*, ...) @printf(i8* nonnull dereferenceable(1) getelementptr inbounds ([19 x i8], [19 x i8]* @.str.4, i64 0, i64 0), i8* nonnull %5, i8* nonnull %6, i32 %9, i32 %11, double %14, i8* nonnull %15)
  %17 = getelementptr inbounds %struct.student, %struct.student* %4, i64 0, i32 6
  %18 = load %struct.student*, %struct.student** %17, align 8, !tbaa !9
  %19 = icmp eq %struct.student* %18, null
  br i1 %19, label %20, label %3, !llvm.loop !18

20:                                               ; preds = %3, %0
  ret void
}

; Function Attrs: nofree nounwind
declare noundef i32 @printf(i8* nocapture noundef readonly, ...) local_unnamed_addr #2


!llvm.module.flags = !{!0, !1, !2, !3}
!llvm.ident = !{!4}

!0 = !{i32 1, !"wchar_size", i32 4}
!1 = !{i32 7, !"PIC Level", i32 2}
!2 = !{i32 7, !"PIE Level", i32 2}
!3 = !{i32 7, !"uwtable", i32 1}
!4 = !{!"clang version 13.0.0"}
!5 = !{!6, !6, i64 0}
!6 = !{!"int", !7, i64 0}
!7 = !{!"omnipotent char", !8, i64 0}
!8 = !{!"Simple C/C++ TBAA"}
!9 = !{!10, !12, i64 312}
!10 = !{!"student", !7, i64 0, !7, i64 100, !7, i64 200, !6, i64 204, !11, i64 208, !7, i64 212, !12, i64 312}
!11 = !{!"float", !7, i64 0}
!12 = !{!"any pointer", !7, i64 0}
!13 = distinct !{!13, !14}
!14 = !{!"llvm.loop.mustprogress"}
!15 = !{!10, !7, i64 200}
!16 = !{!10, !6, i64 204}
!17 = !{!10, !11, i64 208}
!18 = distinct !{!18, !14}
